(dp0
S'dt_list'
p1
(lp2
F0.05
aF0.025
aF0.0125
aF0.00625
asS'linearized_implicit_fixed_parallel'
p3
(lp4
cnumpy.core.multiarray
scalar
p5
(cnumpy
dtype
p6
(S'f8'
p7
I0
I1
tp8
Rp9
(I3
S'<'
p10
NNNI-1
I-1
I0
tp11
bS'\x87mX\xea\xd5]\xc4?'
p12
tp13
Rp14
ag5
(g9
S'\x84b\xd7\xe9\x94\xc0\xa3?'
p15
tp16
Rp17
ag5
(g9
S'\x84\x93\xd5\xb3\xa4C\x85?'
p18
tp19
Rp20
ag5
(g9
S'\x18\x85n\x9cC\xf2\x83?'
p21
tp22
Rp23
asS'generic_implicit'
p24
(lp25
g5
(g9
S'=w\xdb\xb7S}\xc9?'
p26
tp27
Rp28
ag5
(g9
S'\x8d6C_l\xcd\xb3?'
p29
tp30
Rp31
ag5
(g9
S'I\xb5\xd36\x10\xed\xa1?'
p32
tp33
Rp34
ag5
(g9
S'\x18\x81a\x15*\x8b\x90?'
p35
tp36
Rp37
asS'sweeper_list'
p38
(lp39
g24
ag3
aS'linearized_implicit_fixed_parallel_prec'
p40
asg40
(lp41
g5
(g9
S'\x8f\xd6\x8b3\xe6\xd5\xd6?'
p42
tp43
Rp44
ag5
(g9
S'\x86WkPC\xc4\xba?'
p45
tp46
Rp47
ag5
(g9
S'\xbcE[Yu\x8d\xa4?'
p48
tp49
Rp50
ag5
(g9
S'\xea[*\x13\xef\xd8\x91?'
p51
tp52
Rp53
as.